target datalayout = "e-m:e-p270:32:32-p271:32:32-p272:64:64-i64:64-i128:128-f80:128-n8:16:32:64-S128"
target triple = "x86_64-pc-linux-gnu"

%"struct.clang::interp::BlockPointer" = type { ptr, i32 }
%"class.clang::interp::Pointer" = type <{ i64, ptr, ptr, %union.anon, i32, [4 x i8] }>
%union.anon = type { %"struct.clang::interp::BlockPointer", [8 x i8] }

; Function Attrs: mustprogress nounwind uwtable
define linkonce_odr hidden noundef nonnull align 8 dereferenceable(16) ptr @_ZNK5clang6interp7Pointer14asBlockPointerEv(ptr noundef nonnull align 8 dereferenceable(52) %0) #0 comdat align 2 {
  %2 = alloca ptr, align 8
  store ptr %0, ptr %2, align 8
  %3 = load ptr, ptr %2, align 8
  %4 = getelementptr inbounds nuw %"class.clang::interp::Pointer", ptr %3, i32 0, i32 3
  ret ptr %4
}

; Function Attrs: mustprogress nounwind uwtable
define linkonce_odr hidden noundef zeroext i1 @_ZNK5clang6interp7Pointer17isFunctionPointerEv(ptr noundef nonnull align 8 dereferenceable(52) %0) #0 comdat align 2 {
  %2 = alloca ptr, align 8
  store ptr %0, ptr %2, align 8
  %3 = load ptr, ptr %2, align 8
  %4 = getelementptr inbounds nuw %"class.clang::interp::Pointer", ptr %3, i32 0, i32 4
  %5 = load i32, ptr %4, align 8
  %6 = icmp eq i32 %5, 2
  ret i1 %6
}

; Function Attrs: mustprogress nounwind uwtable
define linkonce_odr hidden noundef zeroext i1 @_ZNK5clang6interp7Pointer17isIntegralPointerEv(ptr noundef nonnull align 8 dereferenceable(52) %0) #0 comdat align 2 {
  %2 = alloca ptr, align 8
  store ptr %0, ptr %2, align 8
  %3 = load ptr, ptr %2, align 8
  %4 = getelementptr inbounds nuw %"class.clang::interp::Pointer", ptr %3, i32 0, i32 4
  %5 = load i32, ptr %4, align 8
  %6 = icmp eq i32 %5, 1
  ret i1 %6
}

; Function Attrs: mustprogress nounwind uwtable
define linkonce_odr hidden noundef ptr @_ZNK5clang6interp7Pointer5blockEv(ptr noundef nonnull align 8 dereferenceable(52) %0) #0 comdat align 2 {
  %2 = alloca ptr, align 8
  store ptr %0, ptr %2, align 8
  %3 = load ptr, ptr %2, align 8
  %4 = call noundef nonnull align 8 dereferenceable(16) ptr @_ZNK5clang6interp7Pointer14asBlockPointerEv(ptr noundef nonnull align 8 dereferenceable(52) %3)
  %5 = getelementptr inbounds nuw %"struct.clang::interp::BlockPointer", ptr %4, i32 0, i32 0
  %6 = load ptr, ptr %5, align 8
  ret ptr %6
}

; Function Attrs: mustprogress nounwind uwtable
define linkonce_odr hidden noundef zeroext i1 @_ZNK5clang6interp7Pointer14isBlockPointerEv(ptr noundef nonnull align 8 dereferenceable(52) %0) #0 comdat align 2 {
  %2 = alloca ptr, align 8
  store ptr %0, ptr %2, align 8
  %3 = load ptr, ptr %2, align 8
  %4 = getelementptr inbounds nuw %"class.clang::interp::Pointer", ptr %3, i32 0, i32 4
  %5 = load i32, ptr %4, align 8
  %6 = icmp eq i32 %5, 0
  ret i1 %6
}

; Function Attrs: mustprogress nounwind uwtable
define dso_local void @_ZN5clang6interp7PointeraSEOS1_(ptr noundef nonnull align 8 dereferenceable(52) %0, ptr noundef nonnull align 8 dereferenceable(52) %1) #0 align 2 {
  %3 = alloca ptr, align 8
  %4 = alloca ptr, align 8
  %5 = alloca ptr, align 8
  store ptr %0, ptr %3, align 8
  store ptr %1, ptr %4, align 8
  %6 = load ptr, ptr %3, align 8
  %7 = call noundef zeroext i1 @_ZNK5clang6interp7Pointer14isBlockPointerEv(ptr noundef nonnull align 8 dereferenceable(52) %6)
  br i1 %7, label %8, label %39

8:                                                ; preds = %2
  %9 = load ptr, ptr %4, align 8
  %10 = call noundef zeroext i1 @_ZNK5clang6interp7Pointer14isBlockPointerEv(ptr noundef nonnull align 8 dereferenceable(52) %9)
  br i1 %10, label %11, label %27

11:                                               ; preds = %8
  %12 = call noundef ptr @_ZNK5clang6interp7Pointer5blockEv(ptr noundef nonnull align 8 dereferenceable(52) %6)
  %13 = load ptr, ptr %4, align 8
  %14 = call noundef ptr @_ZNK5clang6interp7Pointer5blockEv(ptr noundef nonnull align 8 dereferenceable(52) %13)
  %15 = icmp eq ptr %12, %14
  br i1 %15, label %16, label %27

16:                                               ; preds = %11
  %17 = load ptr, ptr %4, align 8
  %18 = getelementptr inbounds nuw %"class.clang::interp::Pointer", ptr %17, i32 0, i32 0
  %19 = load i64, ptr %18, align 8
  %20 = getelementptr inbounds nuw %"class.clang::interp::Pointer", ptr %6, i32 0, i32 0
  store i64 %19, ptr %20, align 8
  %21 = load ptr, ptr %4, align 8
  %22 = getelementptr inbounds nuw %"class.clang::interp::Pointer", ptr %21, i32 0, i32 3
  %23 = getelementptr inbounds nuw %"struct.clang::interp::BlockPointer", ptr %22, i32 0, i32 1
  %24 = load i32, ptr %23, align 8
  %25 = getelementptr inbounds nuw %"class.clang::interp::Pointer", ptr %6, i32 0, i32 3
  %26 = getelementptr inbounds nuw %"struct.clang::interp::BlockPointer", ptr %25, i32 0, i32 1
  store i32 %24, ptr %26, align 8
  br label %86

27:                                               ; preds = %11, %8
  %28 = getelementptr inbounds nuw %"class.clang::interp::Pointer", ptr %6, i32 0, i32 3
  %29 = getelementptr inbounds nuw %"struct.clang::interp::BlockPointer", ptr %28, i32 0, i32 0
  %30 = load ptr, ptr %29, align 8
  store ptr %30, ptr %5, align 8
  %31 = load ptr, ptr %5, align 8
  %32 = icmp ne ptr %31, null
  br i1 %32, label %33, label %38

33:                                               ; preds = %27
  %34 = load ptr, ptr %5, align 8
  call void @_ZN5clang6interp5Block13removePointerEPNS0_7PointerE(ptr noundef nonnull align 8 dereferenceable(40) %34, ptr noundef %6)
  %35 = getelementptr inbounds nuw %"class.clang::interp::Pointer", ptr %6, i32 0, i32 3
  %36 = getelementptr inbounds nuw %"struct.clang::interp::BlockPointer", ptr %35, i32 0, i32 0
  store ptr null, ptr %36, align 8
  %37 = load ptr, ptr %5, align 8
  call void @_ZN5clang6interp5Block7cleanupEv(ptr noundef nonnull align 8 dereferenceable(40) %37)
  br label %38

38:                                               ; preds = %33, %27
  br label %39

39:                                               ; preds = %38, %2
  %40 = load ptr, ptr %4, align 8
  %41 = getelementptr inbounds nuw %"class.clang::interp::Pointer", ptr %40, i32 0, i32 4
  %42 = load i32, ptr %41, align 8
  %43 = getelementptr inbounds nuw %"class.clang::interp::Pointer", ptr %6, i32 0, i32 4
  store i32 %42, ptr %43, align 8
  %44 = load ptr, ptr %4, align 8
  %45 = getelementptr inbounds nuw %"class.clang::interp::Pointer", ptr %44, i32 0, i32 0
  %46 = load i64, ptr %45, align 8
  %47 = getelementptr inbounds nuw %"class.clang::interp::Pointer", ptr %6, i32 0, i32 0
  store i64 %46, ptr %47, align 8
  %48 = load ptr, ptr %4, align 8
  %49 = call noundef zeroext i1 @_ZNK5clang6interp7Pointer14isBlockPointerEv(ptr noundef nonnull align 8 dereferenceable(52) %48)
  br i1 %49, label %50, label %69

50:                                               ; preds = %39
  %51 = load ptr, ptr %4, align 8
  %52 = getelementptr inbounds nuw %"class.clang::interp::Pointer", ptr %51, i32 0, i32 3
  %53 = getelementptr inbounds nuw %"class.clang::interp::Pointer", ptr %6, i32 0, i32 3
  call void @llvm.memcpy.p0.p0.i64(ptr align 8 %53, ptr align 8 %52, i64 16, i1 false)
  %54 = load ptr, ptr %4, align 8
  %55 = getelementptr inbounds nuw %"class.clang::interp::Pointer", ptr %54, i32 0, i32 3
  %56 = getelementptr inbounds nuw %"struct.clang::interp::BlockPointer", ptr %55, i32 0, i32 0
  %57 = load ptr, ptr %56, align 8
  %58 = getelementptr inbounds nuw %"class.clang::interp::Pointer", ptr %6, i32 0, i32 3
  %59 = getelementptr inbounds nuw %"struct.clang::interp::BlockPointer", ptr %58, i32 0, i32 0
  store ptr %57, ptr %59, align 8
  %60 = getelementptr inbounds nuw %"class.clang::interp::Pointer", ptr %6, i32 0, i32 3
  %61 = getelementptr inbounds nuw %"struct.clang::interp::BlockPointer", ptr %60, i32 0, i32 0
  %62 = load ptr, ptr %61, align 8
  %63 = icmp ne ptr %62, null
  br i1 %63, label %64, label %68

64:                                               ; preds = %50
  %65 = getelementptr inbounds nuw %"class.clang::interp::Pointer", ptr %6, i32 0, i32 3
  %66 = getelementptr inbounds nuw %"struct.clang::interp::BlockPointer", ptr %65, i32 0, i32 0
  %67 = load ptr, ptr %66, align 8
  call void @_ZN5clang6interp5Block10addPointerEPNS0_7PointerE(ptr noundef nonnull align 8 dereferenceable(40) %67, ptr noundef %6)
  br label %68

68:                                               ; preds = %64, %50
  br label %86

69:                                               ; preds = %39
  %70 = load ptr, ptr %4, align 8
  %71 = call noundef zeroext i1 @_ZNK5clang6interp7Pointer17isIntegralPointerEv(ptr noundef nonnull align 8 dereferenceable(52) %70)
  br i1 %71, label %72, label %76

72:                                               ; preds = %69
  %73 = load ptr, ptr %4, align 8
  %74 = getelementptr inbounds nuw %"class.clang::interp::Pointer", ptr %73, i32 0, i32 3
  %75 = getelementptr inbounds nuw %"class.clang::interp::Pointer", ptr %6, i32 0, i32 3
  call void @llvm.memcpy.p0.p0.i64(ptr align 8 %75, ptr align 8 %74, i64 16, i1 false)
  br label %85

76:                                               ; preds = %69
  %77 = load ptr, ptr %4, align 8
  %78 = call noundef zeroext i1 @_ZNK5clang6interp7Pointer17isFunctionPointerEv(ptr noundef nonnull align 8 dereferenceable(52) %77)
  br i1 %78, label %79, label %83

79:                                               ; preds = %76
  %80 = load ptr, ptr %4, align 8
  %81 = getelementptr inbounds nuw %"class.clang::interp::Pointer", ptr %80, i32 0, i32 3
  %82 = getelementptr inbounds nuw %"class.clang::interp::Pointer", ptr %6, i32 0, i32 3
  call void @llvm.memcpy.p0.p0.i64(ptr align 8 %82, ptr align 8 %81, i64 17, i1 false)
  br label %84

83:                                               ; preds = %76
  br label %84

84:                                               ; preds = %83, %79
  br label %85

85:                                               ; preds = %84, %72
  br label %86

86:                                               ; preds = %85, %68, %16
  ret void
}