; Function Attrs: mustprogress nounwind uwtable
define dso_local void @_ZN5clang6interp7PointeraSEOS1_(ptr noundef nonnull align 8 dereferenceable(52) %0, ptr nocapture noundef nonnull readonly align 8 dereferenceable(52) %1) local_unnamed_addr #0 align 2 {
  %3 = getelementptr inbounds nuw i8, ptr %0, i64 48
  %4 = load i32, ptr %3, align 8
  %5 = icmp eq i32 %4, 0
  br i1 %5, label %6, label %22

6:                                                ; preds = %2
  %7 = getelementptr inbounds nuw i8, ptr %1, i64 48
  %8 = load i32, ptr %7, align 8
  %9 = icmp eq i32 %8, 0
  %10 = getelementptr inbounds nuw i8, ptr %0, i64 24
  %11 = load ptr, ptr %10, align 8
  %12 = getelementptr inbounds nuw i8, ptr %1, i64 24
  %13 = load ptr, ptr %12, align 8
  %14 = icmp eq ptr %11, %13
  %or.cond = select i1 %9, i1 %14, i1 false
  br i1 %or.cond, label %15, label %._crit_edge

15:                                               ; preds = %6
  %16 = load i64, ptr %1, align 8
  store i64 %16, ptr %0, align 8
  %17 = getelementptr inbounds i8, ptr %1, i64 32
  %18 = load i32, ptr %17, align 8
  %19 = getelementptr inbounds i8, ptr %0, i64 32
  store i32 %18, ptr %19, align 8
  br label %38

._crit_edge:                                      ; preds = %6
  %.not = icmp eq ptr %11, null
  br i1 %.not, label %22, label %20

20:                                               ; preds = %._crit_edge
  %21 = getelementptr inbounds nuw i8, ptr %0, i64 24
  tail call void @_ZN5clang6interp5Block13removePointerEPNS0_7PointerE(ptr noundef nonnull align 8 dereferenceable(40) %11, ptr noundef nonnull %0) #18
  store ptr null, ptr %21, align 8
  tail call void @_ZN5clang6interp5Block7cleanupEv(ptr noundef nonnull align 8 dereferenceable(40) %11) #18
  br label %22

22:                                               ; preds = %._crit_edge, %20, %2
  %23 = getelementptr inbounds nuw i8, ptr %1, i64 48
  %24 = load i32, ptr %23, align 8
  store i32 %24, ptr %3, align 8
  %25 = load i64, ptr %1, align 8
  store i64 %25, ptr %0, align 8
  %26 = load i32, ptr %23, align 8
  switch i32 %26, label %38 [
    i32 0, label %27
    i32 1, label %32
    i32 2, label %35
  ]

27:                                               ; preds = %22
  %28 = getelementptr inbounds nuw i8, ptr %1, i64 24
  %29 = getelementptr inbounds nuw i8, ptr %0, i64 24
  tail call void @llvm.memcpy.p0.p0.i64(ptr noundef nonnull align 8 dereferenceable(16) %29, ptr noundef nonnull align 8 dereferenceable(16) %28, i64 16, i1 false)
  %30 = load ptr, ptr %28, align 8
  store ptr %30, ptr %29, align 8
  %.not18 = icmp eq ptr %30, null
  br i1 %.not18, label %38, label %31

31:                                               ; preds = %27
  tail call void @_ZN5clang6interp5Block10addPointerEPNS0_7PointerE(ptr noundef nonnull align 8 dereferenceable(40) %30, ptr noundef nonnull %0) #18
  br label %38

32:                                               ; preds = %22
  %33 = getelementptr inbounds nuw i8, ptr %1, i64 24
  %34 = getelementptr inbounds nuw i8, ptr %0, i64 24
  tail call void @llvm.memcpy.p0.p0.i64(ptr noundef nonnull align 8 dereferenceable(16) %34, ptr noundef nonnull align 8 dereferenceable(16) %33, i64 16, i1 false)
  br label %38

35:                                               ; preds = %22
  %36 = getelementptr inbounds nuw i8, ptr %1, i64 24
  %37 = getelementptr inbounds nuw i8, ptr %0, i64 24
  tail call void @llvm.memcpy.p0.p0.i64(ptr noundef nonnull align 8 dereferenceable(17) %37, ptr noundef nonnull align 8 dereferenceable(17) %36, i64 17, i1 false)
  br label %38

38:                                               ; preds = %22, %32, %35, %27, %31, %15
  ret void
}